; Function Attrs: null_pointer_is_valid sspstrong uwtable
define hidden i32 @dssetup_dissect_struct_DsRoleOpStatus(ptr noundef %0, i32 noundef %1, ptr noundef %2, ptr noundef %3, ptr noundef %4, ptr noundef %5, i32 noundef %6, i32 %7) local_unnamed_addr #0 {
  %9 = alloca i32, align 4
  %10 = getelementptr inbounds nuw i8, ptr %4, i64 64
  %11 = load ptr, ptr %10, align 8
  %12 = getelementptr inbounds nuw i8, ptr %11, i64 96
  %13 = load i32, ptr %12, align 8
  %14 = and i32 %13, 1
  %.not = icmp eq i32 %14, 0
  %15 = getelementptr inbounds nuw i8, ptr %4, i64 25
  %16 = load i8, ptr %15, align 1, !range !6, !noundef !7
  %17 = trunc nuw i8 %16 to i1
  br i1 %.not, label %23, label %18

18:                                               ; preds = %8
  %19 = and i32 %1, 3
  %.not35 = icmp eq i32 %19, 0
  %or.cond = or i1 %.not35, %17
  br i1 %or.cond, label %28, label %20

20:                                               ; preds = %18
  %21 = and i32 %1, -4
  %22 = add i32 %21, 4
  br label %28

23:                                               ; preds = %8
  %24 = and i32 %1, 1
  %.not34 = icmp eq i32 %24, 0
  %or.cond39 = or i1 %.not34, %17
  br i1 %or.cond39, label %28, label %25

25:                                               ; preds = %23
  %26 = and i32 %1, -2
  %27 = add i32 %26, 2
  br label %28

28:                                               ; preds = %23, %25, %18, %20
  %.0 = phi i32 [ %1, %18 ], [ %22, %20 ], [ %1, %23 ], [ %27, %25 ]
  %.not36 = icmp eq ptr %3, null
  br i1 %.not36, label %33, label %29

29:                                               ; preds = %28
  %30 = tail call ptr @proto_tree_add_item(ptr noundef nonnull %3, i32 noundef %6, ptr noundef %0, i32 noundef %.0, i32 noundef -1, i32 noundef 0)
  %31 = load i32, ptr @ett_dssetup_dssetup_DsRoleOpStatus, align 4
  %32 = tail call ptr @proto_item_add_subtree(ptr noundef %30, i32 noundef %31)
  br label %33

33:                                               ; preds = %29, %28
  %.032 = phi ptr [ %30, %29 ], [ null, %28 ]
  %.031 = phi ptr [ %32, %29 ], [ null, %28 ]
  %34 = load i32, ptr @hf_dssetup_dssetup_DsRoleOpStatus_status, align 4
  call void @llvm.lifetime.start.p0(i64 4, ptr nonnull %9) #4
  store i32 0, ptr %9, align 4
  %35 = call i32 @dissect_ndr_uint1632(ptr noundef %0, i32 noundef %.0, ptr noundef %2, ptr noundef %.031, ptr noundef %4, ptr noundef %5, i32 noundef %34, ptr noundef nonnull %9)
  call void @llvm.lifetime.end.p0(i64 4, ptr nonnull %9) #4
  %36 = sub i32 %35, %.0
  call void @proto_item_set_len(ptr noundef %.032, i32 noundef %36)
  %37 = load ptr, ptr %10, align 8
  %38 = getelementptr inbounds nuw i8, ptr %37, i64 96
  %39 = load i32, ptr %38, align 8
  %40 = and i32 %39, 1
  %.not37 = icmp eq i32 %40, 0
  br i1 %.not37, label %49, label %41

41:                                               ; preds = %33
  %42 = getelementptr inbounds nuw i8, ptr %4, i64 25
  %43 = load i8, ptr %42, align 1, !range !6, !noundef !7
  %44 = trunc nuw i8 %43 to i1
  %45 = and i32 %35, 3
  %.not38 = icmp eq i32 %45, 0
  %or.cond40 = or i1 %.not38, %44
  br i1 %or.cond40, label %49, label %46

46:                                               ; preds = %41
  %47 = and i32 %35, -4
  %48 = add i32 %47, 4
  br label %49

49:                                               ; preds = %46, %41, %33
  %.1 = phi i32 [ %35, %41 ], [ %48, %46 ], [ %35, %33 ]
  ret i32 %.1
}